target datalayout = "e-m:e-p270:32:32-p271:32:32-p272:64:64-i64:64-i128:128-f80:128-n8:16:32:64-S128"
target triple = "x86_64-pc-linux-gnu"

%"class.cvc5::internal::theory::quantifiers::QuantifiersModule" = type { %"class.cvc5::internal::EnvObj", ptr, ptr, ptr, ptr }
%"class.cvc5::internal::EnvObj" = type { ptr, ptr }

; Function Attrs: mustprogress uwtable
define hidden noundef zeroext i1 @_ZN4cvc58internal6theory11quantifiers23InstStrategySubConflict10needsCheckENS1_6Theory6EffortE(ptr noundef nonnull align 8 dereferenceable(472) %0, i32 noundef %1) unnamed_addr #4 align 2 {
  %3 = alloca ptr, align 8
  %4 = alloca i32, align 4
  store ptr %0, ptr %3, align 8, !tbaa !3
  store i32 %1, ptr %4, align 4, !tbaa !91
  %5 = load ptr, ptr %3, align 8
  %6 = getelementptr inbounds nuw %"class.cvc5::internal::theory::quantifiers::QuantifiersModule", ptr %5, i32 0, i32 1
  %7 = load ptr, ptr %6, align 8, !tbaa !93
  %8 = load ptr, ptr %7, align 8, !tbaa !18
  %9 = getelementptr inbounds ptr, ptr %8, i64 9
  %10 = load ptr, ptr %9, align 8
  %11 = call noundef zeroext i1 %10(ptr noundef nonnull align 8 dereferenceable(160) %7)
  %12 = xor i1 %11, true
  ret i1 %12
}